target datalayout = "e-m:e-p270:32:32-p271:32:32-p272:64:64-i64:64-i128:128-f80:128-n8:16:32:64-S128"
target triple = "x86_64-pc-linux-gnu"

%struct._cms_typehandler_struct = type { i32, ptr, ptr, ptr, ptr, ptr, i32 }
%struct.cmsMHC2Type = type { i32, ptr, ptr, ptr, double, double, [3 x [4 x double]] }
%struct._cms_io_handler = type { ptr, ptr, i32, i32, [256 x i8], ptr, ptr, ptr, ptr, ptr }

; Function Attrs: nounwind uwtable
define internal void @Type_MHC2_Free(ptr noundef %0, ptr noundef %1) #0 {
  %3 = alloca ptr, align 8
  %4 = alloca ptr, align 8
  %5 = alloca ptr, align 8
  store ptr %0, ptr %3, align 8
  store ptr %1, ptr %4, align 8
  %6 = load ptr, ptr %4, align 8
  store ptr %6, ptr %5, align 8
  %7 = load ptr, ptr %5, align 8
  %8 = getelementptr inbounds %struct.cmsMHC2Type, ptr %7, i32 0, i32 1
  %9 = load ptr, ptr %8, align 8
  %10 = icmp ne ptr %9, null
  br i1 %10, label %11, label %18

11:                                               ; preds = %2
  %12 = load ptr, ptr %3, align 8
  %13 = getelementptr inbounds %struct._cms_typehandler_struct, ptr %12, i32 0, i32 5
  %14 = load ptr, ptr %13, align 8
  %15 = load ptr, ptr %5, align 8
  %16 = getelementptr inbounds %struct.cmsMHC2Type, ptr %15, i32 0, i32 1
  %17 = load ptr, ptr %16, align 8
  call void @_cmsFree(ptr noundef %14, ptr noundef %17)
  br label %18

18:                                               ; preds = %11, %2
  %19 = load ptr, ptr %5, align 8
  %20 = getelementptr inbounds %struct.cmsMHC2Type, ptr %19, i32 0, i32 2
  %21 = load ptr, ptr %20, align 8
  %22 = icmp ne ptr %21, null
  br i1 %22, label %23, label %30

23:                                               ; preds = %18
  %24 = load ptr, ptr %3, align 8
  %25 = getelementptr inbounds %struct._cms_typehandler_struct, ptr %24, i32 0, i32 5
  %26 = load ptr, ptr %25, align 8
  %27 = load ptr, ptr %5, align 8
  %28 = getelementptr inbounds %struct.cmsMHC2Type, ptr %27, i32 0, i32 2
  %29 = load ptr, ptr %28, align 8
  call void @_cmsFree(ptr noundef %26, ptr noundef %29)
  br label %30

30:                                               ; preds = %23, %18
  %31 = load ptr, ptr %5, align 8
  %32 = getelementptr inbounds %struct.cmsMHC2Type, ptr %31, i32 0, i32 3
  %33 = load ptr, ptr %32, align 8
  %34 = icmp ne ptr %33, null
  br i1 %34, label %35, label %42

35:                                               ; preds = %30
  %36 = load ptr, ptr %3, align 8
  %37 = getelementptr inbounds %struct._cms_typehandler_struct, ptr %36, i32 0, i32 5
  %38 = load ptr, ptr %37, align 8
  %39 = load ptr, ptr %5, align 8
  %40 = getelementptr inbounds %struct.cmsMHC2Type, ptr %39, i32 0, i32 3
  %41 = load ptr, ptr %40, align 8
  call void @_cmsFree(ptr noundef %38, ptr noundef %41)
  br label %42

42:                                               ; preds = %35, %30
  %43 = load ptr, ptr %3, align 8
  %44 = getelementptr inbounds %struct._cms_typehandler_struct, ptr %43, i32 0, i32 5
  %45 = load ptr, ptr %44, align 8
  %46 = load ptr, ptr %4, align 8
  call void @_cmsFree(ptr noundef %45, ptr noundef %46)
  ret void
}

; Function Attrs: nounwind uwtable
define internal void @SetIdentity(ptr noundef %0) #0 {
  %2 = alloca ptr, align 8
  store ptr %0, ptr %2, align 8
  %3 = load ptr, ptr %2, align 8
  %4 = getelementptr inbounds [4 x double], ptr %3, i64 0
  %5 = getelementptr inbounds [4 x double], ptr %4, i64 0, i64 0
  store double 1.000000e+00, ptr %5, align 8
  %6 = load ptr, ptr %2, align 8
  %7 = getelementptr inbounds [4 x double], ptr %6, i64 0
  %8 = getelementptr inbounds [4 x double], ptr %7, i64 0, i64 1
  store double 0.000000e+00, ptr %8, align 8
  %9 = load ptr, ptr %2, align 8
  %10 = getelementptr inbounds [4 x double], ptr %9, i64 0
  %11 = getelementptr inbounds [4 x double], ptr %10, i64 0, i64 2
  store double 0.000000e+00, ptr %11, align 8
  %12 = load ptr, ptr %2, align 8
  %13 = getelementptr inbounds [4 x double], ptr %12, i64 0
  %14 = getelementptr inbounds [4 x double], ptr %13, i64 0, i64 3
  store double 0.000000e+00, ptr %14, align 8
  %15 = load ptr, ptr %2, align 8
  %16 = getelementptr inbounds [4 x double], ptr %15, i64 1
  %17 = getelementptr inbounds [4 x double], ptr %16, i64 0, i64 0
  store double 0.000000e+00, ptr %17, align 8
  %18 = load ptr, ptr %2, align 8
  %19 = getelementptr inbounds [4 x double], ptr %18, i64 1
  %20 = getelementptr inbounds [4 x double], ptr %19, i64 0, i64 1
  store double 1.000000e+00, ptr %20, align 8
  %21 = load ptr, ptr %2, align 8
  %22 = getelementptr inbounds [4 x double], ptr %21, i64 1
  %23 = getelementptr inbounds [4 x double], ptr %22, i64 0, i64 2
  store double 0.000000e+00, ptr %23, align 8
  %24 = load ptr, ptr %2, align 8
  %25 = getelementptr inbounds [4 x double], ptr %24, i64 1
  %26 = getelementptr inbounds [4 x double], ptr %25, i64 0, i64 3
  store double 0.000000e+00, ptr %26, align 8
  %27 = load ptr, ptr %2, align 8
  %28 = getelementptr inbounds [4 x double], ptr %27, i64 2
  %29 = getelementptr inbounds [4 x double], ptr %28, i64 0, i64 0
  store double 0.000000e+00, ptr %29, align 8
  %30 = load ptr, ptr %2, align 8
  %31 = getelementptr inbounds [4 x double], ptr %30, i64 2
  %32 = getelementptr inbounds [4 x double], ptr %31, i64 0, i64 1
  store double 0.000000e+00, ptr %32, align 8
  %33 = load ptr, ptr %2, align 8
  %34 = getelementptr inbounds [4 x double], ptr %33, i64 2
  %35 = getelementptr inbounds [4 x double], ptr %34, i64 0, i64 2
  store double 1.000000e+00, ptr %35, align 8
  %36 = load ptr, ptr %2, align 8
  %37 = getelementptr inbounds [4 x double], ptr %36, i64 2
  %38 = getelementptr inbounds [4 x double], ptr %37, i64 0, i64 3
  store double 0.000000e+00, ptr %38, align 8
  ret void
}

; Function Attrs: nounwind uwtable
define internal ptr @Type_MHC2_Read(ptr noundef %0, ptr noundef %1, ptr noundef %2, i32 noundef %3) #0 {
  %5 = alloca ptr, align 8
  %6 = alloca ptr, align 8
  %7 = alloca ptr, align 8
  %8 = alloca ptr, align 8
  %9 = alloca i32, align 4
  %10 = alloca ptr, align 8
  %11 = alloca i32, align 4
  %12 = alloca i32, align 4
  %13 = alloca i32, align 4
  %14 = alloca i32, align 4
  %15 = alloca i32, align 4
  store ptr %0, ptr %6, align 8
  store ptr %1, ptr %7, align 8
  store ptr %2, ptr %8, align 8
  store i32 %3, ptr %9, align 4
  store ptr null, ptr %10, align 8
  %16 = load ptr, ptr %7, align 8
  %17 = getelementptr inbounds %struct._cms_io_handler, ptr %16, i32 0, i32 8
  %18 = load ptr, ptr %17, align 8
  %19 = load ptr, ptr %7, align 8
  %20 = call i32 %18(ptr noundef %19)
  %21 = zext i32 %20 to i64
  %22 = sub i64 %21, 8
  %23 = trunc i64 %22 to i32
  store i32 %23, ptr %11, align 4
  %24 = load ptr, ptr %7, align 8
  %25 = call i32 @_cmsReadUInt32Number(ptr noundef %24, ptr noundef null)
  %26 = icmp ne i32 %25, 0
  br i1 %26, label %28, label %27

27:                                               ; preds = %4
  store ptr null, ptr %5, align 8
  br label %194

28:                                               ; preds = %4
  %29 = load ptr, ptr %6, align 8
  %30 = getelementptr inbounds %struct._cms_typehandler_struct, ptr %29, i32 0, i32 5
  %31 = load ptr, ptr %30, align 8
  %32 = call ptr @_cmsCalloc(ptr noundef %31, i32 noundef 1, i32 noundef 144)
  store ptr %32, ptr %10, align 8
  %33 = load ptr, ptr %10, align 8
  %34 = icmp eq ptr %33, null
  br i1 %34, label %35, label %36

35:                                               ; preds = %28
  store ptr null, ptr %5, align 8
  br label %194

36:                                               ; preds = %28
  %37 = load ptr, ptr %7, align 8
  %38 = load ptr, ptr %10, align 8
  %39 = getelementptr inbounds %struct.cmsMHC2Type, ptr %38, i32 0, i32 0
  %40 = call i32 @_cmsReadUInt32Number(ptr noundef %37, ptr noundef %39)
  %41 = icmp ne i32 %40, 0
  br i1 %41, label %43, label %42

42:                                               ; preds = %36
  br label %191

43:                                               ; preds = %36
  %44 = load ptr, ptr %10, align 8
  %45 = getelementptr inbounds %struct.cmsMHC2Type, ptr %44, i32 0, i32 0
  %46 = load i32, ptr %45, align 8
  %47 = icmp ugt i32 %46, 4096
  br i1 %47, label %48, label %49

48:                                               ; preds = %43
  br label %191

49:                                               ; preds = %43
  %50 = load ptr, ptr %6, align 8
  %51 = getelementptr inbounds %struct._cms_typehandler_struct, ptr %50, i32 0, i32 5
  %52 = load ptr, ptr %51, align 8
  %53 = load ptr, ptr %10, align 8
  %54 = getelementptr inbounds %struct.cmsMHC2Type, ptr %53, i32 0, i32 0
  %55 = load i32, ptr %54, align 8
  %56 = call ptr @_cmsCalloc(ptr noundef %52, i32 noundef %55, i32 noundef 8)
  %57 = load ptr, ptr %10, align 8
  %58 = getelementptr inbounds %struct.cmsMHC2Type, ptr %57, i32 0, i32 1
  store ptr %56, ptr %58, align 8
  %59 = load ptr, ptr %6, align 8
  %60 = getelementptr inbounds %struct._cms_typehandler_struct, ptr %59, i32 0, i32 5
  %61 = load ptr, ptr %60, align 8
  %62 = load ptr, ptr %10, align 8
  %63 = getelementptr inbounds %struct.cmsMHC2Type, ptr %62, i32 0, i32 0
  %64 = load i32, ptr %63, align 8
  %65 = call ptr @_cmsCalloc(ptr noundef %61, i32 noundef %64, i32 noundef 8)
  %66 = load ptr, ptr %10, align 8
  %67 = getelementptr inbounds %struct.cmsMHC2Type, ptr %66, i32 0, i32 2
  store ptr %65, ptr %67, align 8
  %68 = load ptr, ptr %6, align 8
  %69 = getelementptr inbounds %struct._cms_typehandler_struct, ptr %68, i32 0, i32 5
  %70 = load ptr, ptr %69, align 8
  %71 = load ptr, ptr %10, align 8
  %72 = getelementptr inbounds %struct.cmsMHC2Type, ptr %71, i32 0, i32 0
  %73 = load i32, ptr %72, align 8
  %74 = call ptr @_cmsCalloc(ptr noundef %70, i32 noundef %73, i32 noundef 8)
  %75 = load ptr, ptr %10, align 8
  %76 = getelementptr inbounds %struct.cmsMHC2Type, ptr %75, i32 0, i32 3
  store ptr %74, ptr %76, align 8
  %77 = load ptr, ptr %10, align 8
  %78 = getelementptr inbounds %struct.cmsMHC2Type, ptr %77, i32 0, i32 1
  %79 = load ptr, ptr %78, align 8
  %80 = icmp eq ptr %79, null
  br i1 %80, label %91, label %81

81:                                               ; preds = %49
  %82 = load ptr, ptr %10, align 8
  %83 = getelementptr inbounds %struct.cmsMHC2Type, ptr %82, i32 0, i32 2
  %84 = load ptr, ptr %83, align 8
  %85 = icmp eq ptr %84, null
  br i1 %85, label %91, label %86

86:                                               ; preds = %81
  %87 = load ptr, ptr %10, align 8
  %88 = getelementptr inbounds %struct.cmsMHC2Type, ptr %87, i32 0, i32 3
  %89 = load ptr, ptr %88, align 8
  %90 = icmp eq ptr %89, null
  br i1 %90, label %91, label %92

91:                                               ; preds = %86, %81, %49
  br label %191

92:                                               ; preds = %86
  %93 = load ptr, ptr %7, align 8
  %94 = load ptr, ptr %10, align 8
  %95 = getelementptr inbounds %struct.cmsMHC2Type, ptr %94, i32 0, i32 4
  %96 = call i32 @_cmsRead15Fixed16Number(ptr noundef %93, ptr noundef %95)
  %97 = icmp ne i32 %96, 0
  br i1 %97, label %99, label %98

98:                                               ; preds = %92
  br label %191

99:                                               ; preds = %92
  %100 = load ptr, ptr %7, align 8
  %101 = load ptr, ptr %10, align 8
  %102 = getelementptr inbounds %struct.cmsMHC2Type, ptr %101, i32 0, i32 5
  %103 = call i32 @_cmsRead15Fixed16Number(ptr noundef %100, ptr noundef %102)
  %104 = icmp ne i32 %103, 0
  br i1 %104, label %106, label %105

105:                                              ; preds = %99
  br label %191

106:                                              ; preds = %99
  %107 = load ptr, ptr %7, align 8
  %108 = call i32 @_cmsReadUInt32Number(ptr noundef %107, ptr noundef %12)
  %109 = icmp ne i32 %108, 0
  br i1 %109, label %111, label %110

110:                                              ; preds = %106
  br label %191

111:                                              ; preds = %106
  %112 = load ptr, ptr %7, align 8
  %113 = call i32 @_cmsReadUInt32Number(ptr noundef %112, ptr noundef %13)
  %114 = icmp ne i32 %113, 0
  br i1 %114, label %116, label %115

115:                                              ; preds = %111
  br label %191

116:                                              ; preds = %111
  %117 = load ptr, ptr %7, align 8
  %118 = call i32 @_cmsReadUInt32Number(ptr noundef %117, ptr noundef %14)
  %119 = icmp ne i32 %118, 0
  br i1 %119, label %121, label %120

120:                                              ; preds = %116
  br label %191

121:                                              ; preds = %116
  %122 = load ptr, ptr %7, align 8
  %123 = call i32 @_cmsReadUInt32Number(ptr noundef %122, ptr noundef %15)
  %124 = icmp ne i32 %123, 0
  br i1 %124, label %126, label %125

125:                                              ; preds = %121
  br label %191

126:                                              ; preds = %121
  %127 = load i32, ptr %12, align 4
  %128 = icmp eq i32 %127, 0
  br i1 %128, label %129, label %133

129:                                              ; preds = %126
  %130 = load ptr, ptr %10, align 8
  %131 = getelementptr inbounds %struct.cmsMHC2Type, ptr %130, i32 0, i32 6
  %132 = getelementptr inbounds [3 x [4 x double]], ptr %131, i64 0, i64 0
  call void @SetIdentity(ptr noundef %132)
  br label %146

133:                                              ; preds = %126
  %134 = load ptr, ptr %7, align 8
  %135 = load i32, ptr %11, align 4
  %136 = load i32, ptr %12, align 4
  %137 = add i32 %135, %136
  %138 = load ptr, ptr %10, align 8
  %139 = getelementptr inbounds %struct.cmsMHC2Type, ptr %138, i32 0, i32 6
  %140 = getelementptr inbounds [3 x [4 x double]], ptr %139, i64 0, i64 0
  %141 = getelementptr inbounds [4 x double], ptr %140, i64 0, i64 0
  %142 = call i32 @ReadDoublesAt(ptr noundef %134, i32 noundef %137, i32 noundef 12, ptr noundef %141)
  %143 = icmp ne i32 %142, 0
  br i1 %143, label %145, label %144

144:                                              ; preds = %133
  br label %191

145:                                              ; preds = %133
  br label %146

146:                                              ; preds = %145, %129
  %147 = load ptr, ptr %7, align 8
  %148 = load i32, ptr %11, align 4
  %149 = load i32, ptr %13, align 4
  %150 = add i32 %148, %149
  %151 = load ptr, ptr %10, align 8
  %152 = getelementptr inbounds %struct.cmsMHC2Type, ptr %151, i32 0, i32 0
  %153 = load i32, ptr %152, align 8
  %154 = load ptr, ptr %10, align 8
  %155 = getelementptr inbounds %struct.cmsMHC2Type, ptr %154, i32 0, i32 1
  %156 = load ptr, ptr %155, align 8
  %157 = call i32 @ReadDoublesAt(ptr noundef %147, i32 noundef %150, i32 noundef %153, ptr noundef %156)
  %158 = icmp ne i32 %157, 0
  br i1 %158, label %160, label %159

159:                                              ; preds = %146
  br label %191

160:                                              ; preds = %146
  %161 = load ptr, ptr %7, align 8
  %162 = load i32, ptr %11, align 4
  %163 = load i32, ptr %14, align 4
  %164 = add i32 %162, %163
  %165 = load ptr, ptr %10, align 8
  %166 = getelementptr inbounds %struct.cmsMHC2Type, ptr %165, i32 0, i32 0
  %167 = load i32, ptr %166, align 8
  %168 = load ptr, ptr %10, align 8
  %169 = getelementptr inbounds %struct.cmsMHC2Type, ptr %168, i32 0, i32 2
  %170 = load ptr, ptr %169, align 8
  %171 = call i32 @ReadDoublesAt(ptr noundef %161, i32 noundef %164, i32 noundef %167, ptr noundef %170)
  %172 = icmp ne i32 %171, 0
  br i1 %172, label %174, label %173

173:                                              ; preds = %160
  br label %191

174:                                              ; preds = %160
  %175 = load ptr, ptr %7, align 8
  %176 = load i32, ptr %11, align 4
  %177 = load i32, ptr %15, align 4
  %178 = add i32 %176, %177
  %179 = load ptr, ptr %10, align 8
  %180 = getelementptr inbounds %struct.cmsMHC2Type, ptr %179, i32 0, i32 0
  %181 = load i32, ptr %180, align 8
  %182 = load ptr, ptr %10, align 8
  %183 = getelementptr inbounds %struct.cmsMHC2Type, ptr %182, i32 0, i32 3
  %184 = load ptr, ptr %183, align 8
  %185 = call i32 @ReadDoublesAt(ptr noundef %175, i32 noundef %178, i32 noundef %181, ptr noundef %184)
  %186 = icmp ne i32 %185, 0
  br i1 %186, label %188, label %187

187:                                              ; preds = %174
  br label %191

188:                                              ; preds = %174
  %189 = load ptr, ptr %8, align 8
  store i32 1, ptr %189, align 4
  %190 = load ptr, ptr %10, align 8
  store ptr %190, ptr %5, align 8
  br label %194

191:                                              ; preds = %187, %173, %159, %144, %125, %120, %115, %110, %105, %98, %91, %48, %42
  %192 = load ptr, ptr %6, align 8
  %193 = load ptr, ptr %10, align 8
  call void @Type_MHC2_Free(ptr noundef %192, ptr noundef %193)
  store ptr null, ptr %5, align 8
  br label %194

194:                                              ; preds = %191, %188, %35, %27
  %195 = load ptr, ptr %5, align 8
  ret ptr %195
}