; Function Attrs: nounwind uwtable
define internal ptr @Type_MHC2_Read(ptr nocapture noundef readonly %0, ptr noundef %1, ptr nocapture noundef writeonly %2, i32 %3) #0 {
  %5 = alloca i32, align 4
  %6 = alloca i32, align 4
  %7 = alloca i32, align 4
  %8 = alloca i32, align 4
  %9 = getelementptr inbounds i8, ptr %1, i64 304
  %10 = load ptr, ptr %9, align 8
  %11 = tail call i32 %10(ptr noundef %1) #13
  %12 = add i32 %11, -8
  %13 = tail call i32 @_cmsReadUInt32Number(ptr noundef %1, ptr noundef null) #13
  %.not = icmp eq i32 %13, 0
  br i1 %.not, label %104, label %14

14:                                               ; preds = %4
  %15 = getelementptr inbounds i8, ptr %0, i64 40
  %16 = load ptr, ptr %15, align 8
  %17 = tail call ptr @_cmsCalloc(ptr noundef %16, i32 noundef 1, i32 noundef 144) #13
  %18 = icmp eq ptr %17, null
  br i1 %18, label %104, label %19

19:                                               ; preds = %14
  %20 = tail call i32 @_cmsReadUInt32Number(ptr noundef nonnull %1, ptr noundef nonnull %17) #13
  %.not51 = icmp eq i32 %20, 0
  br i1 %.not51, label %88, label %21

21:                                               ; preds = %19
  %22 = load i32, ptr %17, align 8
  %23 = icmp ugt i32 %22, 4096
  br i1 %23, label %88, label %24

24:                                               ; preds = %21
  %25 = load ptr, ptr %15, align 8
  %26 = tail call ptr @_cmsCalloc(ptr noundef %25, i32 noundef %22, i32 noundef 8) #13
  %27 = getelementptr inbounds i8, ptr %17, i64 8
  store ptr %26, ptr %27, align 8
  %28 = load ptr, ptr %15, align 8
  %29 = load i32, ptr %17, align 8
  %30 = tail call ptr @_cmsCalloc(ptr noundef %28, i32 noundef %29, i32 noundef 8) #13
  %31 = getelementptr inbounds i8, ptr %17, i64 16
  store ptr %30, ptr %31, align 8
  %32 = load ptr, ptr %15, align 8
  %33 = load i32, ptr %17, align 8
  %34 = tail call ptr @_cmsCalloc(ptr noundef %32, i32 noundef %33, i32 noundef 8) #13
  %35 = getelementptr inbounds i8, ptr %17, i64 24
  store ptr %34, ptr %35, align 8
  %36 = load ptr, ptr %27, align 8
  %37 = icmp eq ptr %36, null
  br i1 %37, label %88, label %38

38:                                               ; preds = %24
  %39 = load ptr, ptr %31, align 8
  %40 = icmp eq ptr %39, null
  %41 = icmp eq ptr %34, null
  %or.cond = select i1 %40, i1 true, i1 %41
  br i1 %or.cond, label %88, label %42

42:                                               ; preds = %38
  %43 = getelementptr inbounds i8, ptr %17, i64 32
  %44 = tail call i32 @_cmsRead15Fixed16Number(ptr noundef nonnull %1, ptr noundef nonnull %43) #13
  %.not52 = icmp eq i32 %44, 0
  br i1 %.not52, label %88, label %45

45:                                               ; preds = %42
  %46 = getelementptr inbounds i8, ptr %17, i64 40
  %47 = tail call i32 @_cmsRead15Fixed16Number(ptr noundef nonnull %1, ptr noundef nonnull %46) #13
  %.not53 = icmp eq i32 %47, 0
  br i1 %.not53, label %88, label %48

48:                                               ; preds = %45
  %49 = call i32 @_cmsReadUInt32Number(ptr noundef nonnull %1, ptr noundef nonnull %5) #13
  %.not54 = icmp eq i32 %49, 0
  br i1 %.not54, label %88, label %50

50:                                               ; preds = %48
  %51 = call i32 @_cmsReadUInt32Number(ptr noundef nonnull %1, ptr noundef nonnull %6) #13
  %.not55 = icmp eq i32 %51, 0
  br i1 %.not55, label %88, label %52

52:                                               ; preds = %50
  %53 = call i32 @_cmsReadUInt32Number(ptr noundef nonnull %1, ptr noundef nonnull %7) #13
  %.not56 = icmp eq i32 %53, 0
  br i1 %.not56, label %88, label %54

54:                                               ; preds = %52
  %55 = call i32 @_cmsReadUInt32Number(ptr noundef nonnull %1, ptr noundef nonnull %8) #13
  %.not57 = icmp eq i32 %55, 0
  br i1 %.not57, label %88, label %56

56:                                               ; preds = %54
  %57 = load i32, ptr %5, align 4
  %58 = icmp eq i32 %57, 0
  br i1 %58, label %59, label %65

59:                                               ; preds = %56
  %60 = getelementptr inbounds i8, ptr %17, i64 48
  store double 1.000000e+00, ptr %60, align 8
  %61 = getelementptr inbounds i8, ptr %17, i64 56
  %62 = getelementptr inbounds i8, ptr %17, i64 88
  call void @llvm.memset.p0.i64(ptr noundef nonnull align 8 dereferenceable(32) %61, i8 0, i64 32, i1 false)
  store double 1.000000e+00, ptr %62, align 8
  %63 = getelementptr inbounds i8, ptr %17, i64 96
  %64 = getelementptr inbounds i8, ptr %17, i64 128
  call void @llvm.memset.p0.i64(ptr noundef nonnull align 8 dereferenceable(32) %63, i8 0, i64 32, i1 false)
  store <2 x double> <double 1.000000e+00, double 0.000000e+00>, ptr %64, align 8
  br label %69

65:                                               ; preds = %56
  %66 = add i32 %57, %12
  %67 = getelementptr inbounds i8, ptr %17, i64 48
  %68 = call fastcc i32 @ReadDoublesAt(ptr noundef nonnull %1, i32 noundef %66, i32 noundef 12, ptr noundef nonnull %67)
  %.not58 = icmp eq i32 %68, 0
  br i1 %.not58, label %88, label %69

69:                                               ; preds = %65, %59
  %70 = load i32, ptr %6, align 4
  %71 = add i32 %70, %12
  %72 = load i32, ptr %17, align 8
  %73 = load ptr, ptr %27, align 8
  %74 = call fastcc i32 @ReadDoublesAt(ptr noundef nonnull %1, i32 noundef %71, i32 noundef %72, ptr noundef %73)
  %.not59 = icmp eq i32 %74, 0
  br i1 %.not59, label %88, label %75

75:                                               ; preds = %69
  %76 = load i32, ptr %7, align 4
  %77 = add i32 %76, %12
  %78 = load i32, ptr %17, align 8
  %79 = load ptr, ptr %31, align 8
  %80 = call fastcc i32 @ReadDoublesAt(ptr noundef nonnull %1, i32 noundef %77, i32 noundef %78, ptr noundef %79)
  %.not60 = icmp eq i32 %80, 0
  br i1 %.not60, label %88, label %81

81:                                               ; preds = %75
  %82 = load i32, ptr %8, align 4
  %83 = add i32 %82, %12
  %84 = load i32, ptr %17, align 8
  %85 = load ptr, ptr %35, align 8
  %86 = call fastcc i32 @ReadDoublesAt(ptr noundef nonnull %1, i32 noundef %83, i32 noundef %84, ptr noundef %85)
  %.not61 = icmp eq i32 %86, 0
  br i1 %.not61, label %88, label %87

87:                                               ; preds = %81
  store i32 1, ptr %2, align 4
  br label %104

88:                                               ; preds = %81, %75, %69, %65, %54, %52, %50, %48, %45, %42, %24, %38, %21, %19
  %89 = getelementptr inbounds i8, ptr %17, i64 8
  %90 = load ptr, ptr %89, align 8
  %.not.i = icmp eq ptr %90, null
  br i1 %.not.i, label %93, label %91

91:                                               ; preds = %88
  %92 = load ptr, ptr %15, align 8
  call void @_cmsFree(ptr noundef %92, ptr noundef nonnull %90) #13
  br label %93

93:                                               ; preds = %91, %88
  %94 = getelementptr inbounds i8, ptr %17, i64 16
  %95 = load ptr, ptr %94, align 8
  %.not14.i = icmp eq ptr %95, null
  br i1 %.not14.i, label %98, label %96

96:                                               ; preds = %93
  %97 = load ptr, ptr %15, align 8
  call void @_cmsFree(ptr noundef %97, ptr noundef nonnull %95) #13
  br label %98

98:                                               ; preds = %96, %93
  %99 = getelementptr inbounds i8, ptr %17, i64 24
  %100 = load ptr, ptr %99, align 8
  %.not15.i = icmp eq ptr %100, null
  br i1 %.not15.i, label %Type_MHC2_Free.exit, label %101

101:                                              ; preds = %98
  %102 = load ptr, ptr %15, align 8
  call void @_cmsFree(ptr noundef %102, ptr noundef nonnull %100) #13
  br label %Type_MHC2_Free.exit

Type_MHC2_Free.exit:                              ; preds = %98, %101
  %103 = load ptr, ptr %15, align 8
  call void @_cmsFree(ptr noundef %103, ptr noundef nonnull %17) #13
  br label %104

104:                                              ; preds = %14, %4, %Type_MHC2_Free.exit, %87
  %.0 = phi ptr [ null, %Type_MHC2_Free.exit ], [ %17, %87 ], [ null, %4 ], [ null, %14 ]
  ret ptr %.0
}